; Function Attrs: mustprogress nounwind uwtable
define hidden void @_ZN11OopMapCache19enqueue_for_cleanupEP16OopMapCacheEntry(ptr noundef %0) local_unnamed_addr #0 align 2 {
  %2 = getelementptr inbounds i8, ptr %0, i64 56
  br label %3

3:                                                ; preds = %3, %1
  %4 = load volatile ptr, ptr @_ZN11OopMapCache12_old_entriesE, align 8
  store ptr %4, ptr %2, align 8
  %5 = tail call noundef ptr asm sideeffect "lock cmpxchgq $1,($3)", "={ax},r,{ax},r,~{cc},~{memory},~{dirflag},~{fpsr},~{flags}"(ptr %0, ptr %4, ptr nonnull @_ZN11OopMapCache12_old_entriesE) #17, !srcloc !16
  %6 = icmp eq ptr %5, %4
  br i1 %6, label %7, label %3, !llvm.loop !21

7:                                                ; preds = %3
  %8 = load volatile ptr, ptr getelementptr inbounds (i8, ptr @_ZN16LogTagSetMappingILN6LogTag4typeE62ELS1_102ELS1_0ELS1_0ELS1_0ELS1_0EE7_tagsetE, i64 56), align 8
  %.not = icmp eq ptr %8, null
  br i1 %.not, label %_ZN12ResourceMarkD2Ev.exit, label %9

9:                                                ; preds = %7
  %10 = tail call align 8 ptr @llvm.threadlocal.address.p0(ptr align 8 @_ZN6Thread12_thr_currentE)
  %11 = load ptr, ptr %10, align 8
  %12 = getelementptr inbounds i8, ptr %11, i64 800
  %13 = load ptr, ptr %12, align 8
  %14 = getelementptr inbounds i8, ptr %13, i64 24
  %15 = load ptr, ptr %14, align 8
  %16 = getelementptr inbounds i8, ptr %13, i64 32
  %17 = load ptr, ptr %16, align 8
  %18 = getelementptr inbounds i8, ptr %13, i64 40
  %19 = load ptr, ptr %18, align 8
  %20 = getelementptr inbounds i8, ptr %13, i64 8
  %21 = load i64, ptr %20, align 8
  %22 = load volatile ptr, ptr getelementptr inbounds (i8, ptr @_ZN16LogTagSetMappingILN6LogTag4typeE62ELS1_102ELS1_0ELS1_0ELS1_0ELS1_0EE7_tagsetE, i64 56), align 8
  %.not10 = icmp eq ptr %22, null
  br i1 %.not10, label %29, label %23

23:                                               ; preds = %9
  %24 = load ptr, ptr %0, align 8
  %25 = tail call noundef ptr @_ZNK6Method24name_and_sig_as_C_stringEv(ptr noundef nonnull align 8 dereferenceable(88) %24) #17
  %26 = getelementptr inbounds i8, ptr %0, i64 16
  %27 = load i16, ptr %26, align 8
  %28 = zext i16 %27 to i32
  tail call void (ptr, ...) @_ZN7LogImplILN6LogTag4typeE62ELS1_102ELS1_0ELS1_0ELS1_0ELS1_0EE5writeILN8LogLevel4typeE2EEEvPKcz(ptr noundef nonnull @.str.17, ptr noundef %25, i32 noundef %28)
  br label %29

29:                                               ; preds = %9, %23
  %30 = load ptr, ptr %15, align 8
  %.not.i.i.i.i = icmp eq ptr %30, null
  br i1 %.not.i.i.i.i, label %32, label %31

31:                                               ; preds = %29
  tail call void @_ZN5Arena17set_size_in_bytesEm(ptr noundef nonnull align 8 dereferenceable(48) %13, i64 noundef %21) #17
  tail call void @_ZN5Chunk9next_chopEPS_(ptr noundef nonnull %15) #17
  br label %32

32:                                               ; preds = %31, %29
  %33 = load ptr, ptr %16, align 8
  %.not8.i.i.i.i = icmp eq ptr %33, %17
  br i1 %.not8.i.i.i.i, label %_ZN12ResourceMarkD2Ev.exit, label %34

34:                                               ; preds = %32
  store ptr %15, ptr %14, align 8
  store ptr %17, ptr %16, align 8
  store ptr %19, ptr %18, align 8
  br label %_ZN12ResourceMarkD2Ev.exit

_ZN12ResourceMarkD2Ev.exit:                       ; preds = %34, %32, %7
  ret void
}